target datalayout = "e-m:e-p270:32:32-p271:32:32-p272:64:64-i64:64-i128:128-f80:128-n8:16:32:64-S128"
target triple = "x86_64-pc-linux-gnu"

%struct.json_dumper = type { ptr, ptr, i32, i32, i32, i32, [1100 x i8] }
%struct._address = type { i32, i32, ptr, ptr }
%struct._mmdb_lookup_t = type { i8, ptr, ptr, ptr, i32, ptr, double, double, i16 }

@dumper = internal global %struct.json_dumper zeroinitializer, align 8
@.str.123 = private unnamed_addr constant [3 x i8] c"%u\00", align 1
@.str.250 = private unnamed_addr constant [3 x i8] c"%f\00", align 1
@.str.290 = private unnamed_addr constant [16 x i8] c"geoip_country%s\00", align 1
@.str.291 = private unnamed_addr constant [20 x i8] c"geoip_country_iso%s\00", align 1
@.str.292 = private unnamed_addr constant [13 x i8] c"geoip_city%s\00", align 1
@.str.293 = private unnamed_addr constant [15 x i8] c"geoip_as_org%s\00", align 1
@.str.294 = private unnamed_addr constant [11 x i8] c"geoip_as%s\00", align 1
@.str.295 = private unnamed_addr constant [12 x i8] c"geoip_lat%s\00", align 1
@.str.296 = private unnamed_addr constant [12 x i8] c"geoip_lon%s\00", align 1

; Function Attrs: null_pointer_is_valid sspstrong uwtable
define internal void @sharkd_json_value_string(ptr noundef %0, ptr noundef %1) #0 {
  %3 = alloca ptr, align 8
  %4 = alloca ptr, align 8
  store ptr %0, ptr %3, align 8
  store ptr %1, ptr %4, align 8
  %5 = load ptr, ptr %3, align 8
  %6 = icmp ne ptr %5, null
  br i1 %6, label %7, label %9

7:                                                ; preds = %2
  %8 = load ptr, ptr %3, align 8
  call void @json_dumper_set_member_name(ptr noundef @dumper, ptr noundef %8)
  br label %9

9:                                                ; preds = %7, %2
  %10 = load ptr, ptr %4, align 8
  call void @json_dumper_value_string(ptr noundef @dumper, ptr noundef %10)
  ret void
}

; Function Attrs: null_pointer_is_valid sspstrong uwtable
define internal zeroext i1 @sharkd_session_geoip_addr(ptr noundef %0, ptr noundef %1) #0 {
  %3 = alloca i1, align 1
  %4 = alloca ptr, align 8
  %5 = alloca ptr, align 8
  %6 = alloca ptr, align 8
  %7 = alloca i8, align 1
  %8 = alloca [64 x i8], align 16
  %9 = alloca ptr, align 8
  %10 = alloca ptr, align 8
  %11 = alloca i32, align 4
  store ptr %0, ptr %4, align 8
  store ptr %1, ptr %5, align 8
  call void @llvm.lifetime.start.p0(i64 8, ptr %6) #21
  store ptr null, ptr %6, align 8
  call void @llvm.lifetime.start.p0(i64 1, ptr %7) #21
  store i8 0, ptr %7, align 1
  call void @llvm.lifetime.start.p0(i64 64, ptr %8) #21
  %12 = load ptr, ptr %4, align 8
  %13 = getelementptr inbounds nuw %struct._address, ptr %12, i32 0, i32 0
  %14 = load i32, ptr %13, align 8
  %15 = icmp eq i32 %14, 2
  br i1 %15, label %16, label %22

16:                                               ; preds = %2
  call void @llvm.lifetime.start.p0(i64 8, ptr %9) #21
  %17 = load ptr, ptr %4, align 8
  %18 = getelementptr inbounds nuw %struct._address, ptr %17, i32 0, i32 2
  %19 = load ptr, ptr %18, align 8
  store ptr %19, ptr %9, align 8
  %20 = load ptr, ptr %9, align 8
  %21 = call ptr @maxmind_db_lookup_ipv4(ptr noundef %20)
  store ptr %21, ptr %6, align 8
  call void @llvm.lifetime.end.p0(i64 8, ptr %9) #21
  br label %34

22:                                               ; preds = %2
  %23 = load ptr, ptr %4, align 8
  %24 = getelementptr inbounds nuw %struct._address, ptr %23, i32 0, i32 0
  %25 = load i32, ptr %24, align 8
  %26 = icmp eq i32 %25, 3
  br i1 %26, label %27, label %33

27:                                               ; preds = %22
  call void @llvm.lifetime.start.p0(i64 8, ptr %10) #21
  %28 = load ptr, ptr %4, align 8
  %29 = getelementptr inbounds nuw %struct._address, ptr %28, i32 0, i32 2
  %30 = load ptr, ptr %29, align 8
  store ptr %30, ptr %10, align 8
  %31 = load ptr, ptr %10, align 8
  %32 = call ptr @maxmind_db_lookup_ipv6(ptr noundef %31)
  store ptr %32, ptr %6, align 8
  call void @llvm.lifetime.end.p0(i64 8, ptr %10) #21
  br label %33

33:                                               ; preds = %27, %22
  br label %34

34:                                               ; preds = %33, %16
  %35 = load ptr, ptr %6, align 8
  %36 = icmp ne ptr %35, null
  br i1 %36, label %37, label %42

37:                                               ; preds = %34
  %38 = load ptr, ptr %6, align 8
  %39 = getelementptr inbounds nuw %struct._mmdb_lookup_t, ptr %38, i32 0, i32 0
  %40 = load i8, ptr %39, align 8, !range !11, !noundef !12
  %41 = trunc i8 %40 to i1
  br i1 %41, label %43, label %42

42:                                               ; preds = %37, %34
  store i1 false, ptr %3, align 1
  store i32 1, ptr %11, align 4
  br label %147

43:                                               ; preds = %37
  %44 = load ptr, ptr %6, align 8
  %45 = getelementptr inbounds nuw %struct._mmdb_lookup_t, ptr %44, i32 0, i32 1
  %46 = load ptr, ptr %45, align 8
  %47 = icmp ne ptr %46, null
  br i1 %47, label %48, label %56

48:                                               ; preds = %43
  %49 = getelementptr inbounds [64 x i8], ptr %8, i64 0, i64 0
  %50 = load ptr, ptr %5, align 8
  %51 = call i32 (ptr, i64, i32, i64, ptr, ...) @__snprintf_chk(ptr noundef %49, i64 noundef 64, i32 noundef 2, i64 noundef 64, ptr noundef @.str.290, ptr noundef %50)
  %52 = getelementptr inbounds [64 x i8], ptr %8, i64 0, i64 0
  %53 = load ptr, ptr %6, align 8
  %54 = getelementptr inbounds nuw %struct._mmdb_lookup_t, ptr %53, i32 0, i32 1
  %55 = load ptr, ptr %54, align 8
  call void @sharkd_json_value_string(ptr noundef %52, ptr noundef %55)
  store i8 1, ptr %7, align 1
  br label %56

56:                                               ; preds = %48, %43
  %57 = load ptr, ptr %6, align 8
  %58 = getelementptr inbounds nuw %struct._mmdb_lookup_t, ptr %57, i32 0, i32 2
  %59 = load ptr, ptr %58, align 8
  %60 = icmp ne ptr %59, null
  br i1 %60, label %61, label %69

61:                                               ; preds = %56
  %62 = getelementptr inbounds [64 x i8], ptr %8, i64 0, i64 0
  %63 = load ptr, ptr %5, align 8
  %64 = call i32 (ptr, i64, i32, i64, ptr, ...) @__snprintf_chk(ptr noundef %62, i64 noundef 64, i32 noundef 2, i64 noundef 64, ptr noundef @.str.291, ptr noundef %63)
  %65 = getelementptr inbounds [64 x i8], ptr %8, i64 0, i64 0
  %66 = load ptr, ptr %6, align 8
  %67 = getelementptr inbounds nuw %struct._mmdb_lookup_t, ptr %66, i32 0, i32 2
  %68 = load ptr, ptr %67, align 8
  call void @sharkd_json_value_string(ptr noundef %65, ptr noundef %68)
  store i8 1, ptr %7, align 1
  br label %69

69:                                               ; preds = %61, %56
  %70 = load ptr, ptr %6, align 8
  %71 = getelementptr inbounds nuw %struct._mmdb_lookup_t, ptr %70, i32 0, i32 3
  %72 = load ptr, ptr %71, align 8
  %73 = icmp ne ptr %72, null
  br i1 %73, label %74, label %82

74:                                               ; preds = %69
  %75 = getelementptr inbounds [64 x i8], ptr %8, i64 0, i64 0
  %76 = load ptr, ptr %5, align 8
  %77 = call i32 (ptr, i64, i32, i64, ptr, ...) @__snprintf_chk(ptr noundef %75, i64 noundef 64, i32 noundef 2, i64 noundef 64, ptr noundef @.str.292, ptr noundef %76)
  %78 = getelementptr inbounds [64 x i8], ptr %8, i64 0, i64 0
  %79 = load ptr, ptr %6, align 8
  %80 = getelementptr inbounds nuw %struct._mmdb_lookup_t, ptr %79, i32 0, i32 3
  %81 = load ptr, ptr %80, align 8
  call void @sharkd_json_value_string(ptr noundef %78, ptr noundef %81)
  store i8 1, ptr %7, align 1
  br label %82

82:                                               ; preds = %74, %69
  %83 = load ptr, ptr %6, align 8
  %84 = getelementptr inbounds nuw %struct._mmdb_lookup_t, ptr %83, i32 0, i32 5
  %85 = load ptr, ptr %84, align 8
  %86 = icmp ne ptr %85, null
  br i1 %86, label %87, label %95

87:                                               ; preds = %82
  %88 = getelementptr inbounds [64 x i8], ptr %8, i64 0, i64 0
  %89 = load ptr, ptr %5, align 8
  %90 = call i32 (ptr, i64, i32, i64, ptr, ...) @__snprintf_chk(ptr noundef %88, i64 noundef 64, i32 noundef 2, i64 noundef 64, ptr noundef @.str.293, ptr noundef %89)
  %91 = getelementptr inbounds [64 x i8], ptr %8, i64 0, i64 0
  %92 = load ptr, ptr %6, align 8
  %93 = getelementptr inbounds nuw %struct._mmdb_lookup_t, ptr %92, i32 0, i32 5
  %94 = load ptr, ptr %93, align 8
  call void @sharkd_json_value_string(ptr noundef %91, ptr noundef %94)
  store i8 1, ptr %7, align 1
  br label %95

95:                                               ; preds = %87, %82
  %96 = load ptr, ptr %6, align 8
  %97 = getelementptr inbounds nuw %struct._mmdb_lookup_t, ptr %96, i32 0, i32 4
  %98 = load i32, ptr %97, align 8
  %99 = icmp ugt i32 %98, 0
  br i1 %99, label %100, label %108

100:                                              ; preds = %95
  %101 = getelementptr inbounds [64 x i8], ptr %8, i64 0, i64 0
  %102 = load ptr, ptr %5, align 8
  %103 = call i32 (ptr, i64, i32, i64, ptr, ...) @__snprintf_chk(ptr noundef %101, i64 noundef 64, i32 noundef 2, i64 noundef 64, ptr noundef @.str.294, ptr noundef %102)
  %104 = getelementptr inbounds [64 x i8], ptr %8, i64 0, i64 0
  %105 = load ptr, ptr %6, align 8
  %106 = getelementptr inbounds nuw %struct._mmdb_lookup_t, ptr %105, i32 0, i32 4
  %107 = load i32, ptr %106, align 8
  call void (ptr, ptr, ...) @sharkd_json_value_anyf(ptr noundef %104, ptr noundef @.str.123, i32 noundef %107)
  store i8 1, ptr %7, align 1
  br label %108

108:                                              ; preds = %100, %95
  %109 = load ptr, ptr %6, align 8
  %110 = getelementptr inbounds nuw %struct._mmdb_lookup_t, ptr %109, i32 0, i32 6
  %111 = load double, ptr %110, align 8
  %112 = fcmp oge double %111, -9.000000e+01
  br i1 %112, label %113, label %126

113:                                              ; preds = %108
  %114 = load ptr, ptr %6, align 8
  %115 = getelementptr inbounds nuw %struct._mmdb_lookup_t, ptr %114, i32 0, i32 6
  %116 = load double, ptr %115, align 8
  %117 = fcmp ole double %116, 9.000000e+01
  br i1 %117, label %118, label %126

118:                                              ; preds = %113
  %119 = getelementptr inbounds [64 x i8], ptr %8, i64 0, i64 0
  %120 = load ptr, ptr %5, align 8
  %121 = call i32 (ptr, i64, i32, i64, ptr, ...) @__snprintf_chk(ptr noundef %119, i64 noundef 64, i32 noundef 2, i64 noundef 64, ptr noundef @.str.295, ptr noundef %120)
  %122 = getelementptr inbounds [64 x i8], ptr %8, i64 0, i64 0
  %123 = load ptr, ptr %6, align 8
  %124 = getelementptr inbounds nuw %struct._mmdb_lookup_t, ptr %123, i32 0, i32 6
  %125 = load double, ptr %124, align 8
  call void (ptr, ptr, ...) @sharkd_json_value_anyf(ptr noundef %122, ptr noundef @.str.250, double noundef %125)
  store i8 1, ptr %7, align 1
  br label %126

126:                                              ; preds = %118, %113, %108
  %127 = load ptr, ptr %6, align 8
  %128 = getelementptr inbounds nuw %struct._mmdb_lookup_t, ptr %127, i32 0, i32 7
  %129 = load double, ptr %128, align 8
  %130 = fcmp oge double %129, -1.800000e+02
  br i1 %130, label %131, label %144

131:                                              ; preds = %126
  %132 = load ptr, ptr %6, align 8
  %133 = getelementptr inbounds nuw %struct._mmdb_lookup_t, ptr %132, i32 0, i32 7
  %134 = load double, ptr %133, align 8
  %135 = fcmp ole double %134, 1.800000e+02
  br i1 %135, label %136, label %144

136:                                              ; preds = %131
  %137 = getelementptr inbounds [64 x i8], ptr %8, i64 0, i64 0
  %138 = load ptr, ptr %5, align 8
  %139 = call i32 (ptr, i64, i32, i64, ptr, ...) @__snprintf_chk(ptr noundef %137, i64 noundef 64, i32 noundef 2, i64 noundef 64, ptr noundef @.str.296, ptr noundef %138)
  %140 = getelementptr inbounds [64 x i8], ptr %8, i64 0, i64 0
  %141 = load ptr, ptr %6, align 8
  %142 = getelementptr inbounds nuw %struct._mmdb_lookup_t, ptr %141, i32 0, i32 7
  %143 = load double, ptr %142, align 8
  call void (ptr, ptr, ...) @sharkd_json_value_anyf(ptr noundef %140, ptr noundef @.str.250, double noundef %143)
  store i8 1, ptr %7, align 1
  br label %144

144:                                              ; preds = %136, %131, %126
  %145 = load i8, ptr %7, align 1, !range !11, !noundef !12
  %146 = trunc i8 %145 to i1
  store i1 %146, ptr %3, align 1
  store i32 1, ptr %11, align 4
  br label %147

147:                                              ; preds = %144, %42
  call void @llvm.lifetime.end.p0(i64 64, ptr %8) #21
  call void @llvm.lifetime.end.p0(i64 1, ptr %7) #21
  call void @llvm.lifetime.end.p0(i64 8, ptr %6) #21
  %148 = load i1, ptr %3, align 1
  ret i1 %148
}