; Function Attrs: null_pointer_is_valid sspstrong uwtable
define internal fastcc zeroext i1 @sharkd_session_geoip_addr(ptr noundef readonly captures(none) %0, ptr noundef %1) unnamed_addr #0 {
  %3 = alloca [64 x i8], align 16
  call void @llvm.lifetime.start.p0(i64 64, ptr nonnull %3) #17
  %4 = load i32, ptr %0, align 8
  switch i32 %4, label %.thread [
    i32 2, label %5
    i32 3, label %9
  ]

5:                                                ; preds = %2
  %6 = getelementptr inbounds nuw i8, ptr %0, i64 8
  %7 = load ptr, ptr %6, align 8
  %8 = tail call ptr @maxmind_db_lookup_ipv4(ptr noundef %7)
  br label %13

9:                                                ; preds = %2
  %10 = getelementptr inbounds nuw i8, ptr %0, i64 8
  %11 = load ptr, ptr %10, align 8
  %12 = tail call ptr @maxmind_db_lookup_ipv6(ptr noundef %11)
  br label %13

13:                                               ; preds = %9, %5
  %.032 = phi ptr [ %8, %5 ], [ %12, %9 ]
  %.not = icmp eq ptr %.032, null
  br i1 %.not, label %.thread, label %14

14:                                               ; preds = %13
  %15 = load i8, ptr %.032, align 8, !range !15, !noundef !16
  %16 = trunc nuw i8 %15 to i1
  br i1 %16, label %17, label %.thread

17:                                               ; preds = %14
  %18 = getelementptr inbounds nuw i8, ptr %.032, i64 8
  %19 = load ptr, ptr %18, align 8
  %.not37 = icmp ne ptr %19, null
  br i1 %.not37, label %20, label %23

20:                                               ; preds = %17
  %21 = call i32 (ptr, i64, i32, i64, ptr, ...) @__snprintf_chk(ptr noundef nonnull %3, i64 noundef 64, i32 noundef 2, i64 noundef 64, ptr noundef nonnull @.str.290, ptr noundef %1)
  %22 = load ptr, ptr %18, align 8
  call void @json_dumper_set_member_name(ptr noundef nonnull @dumper, ptr noundef nonnull %3)
  call void @json_dumper_value_string(ptr noundef nonnull @dumper, ptr noundef %22)
  br label %23

23:                                               ; preds = %20, %17
  %24 = getelementptr inbounds nuw i8, ptr %.032, i64 16
  %25 = load ptr, ptr %24, align 8
  %.not38 = icmp eq ptr %25, null
  br i1 %.not38, label %29, label %26

26:                                               ; preds = %23
  %27 = call i32 (ptr, i64, i32, i64, ptr, ...) @__snprintf_chk(ptr noundef nonnull %3, i64 noundef 64, i32 noundef 2, i64 noundef 64, ptr noundef nonnull @.str.291, ptr noundef %1)
  %28 = load ptr, ptr %24, align 8
  call void @json_dumper_set_member_name(ptr noundef nonnull @dumper, ptr noundef nonnull %3)
  call void @json_dumper_value_string(ptr noundef nonnull @dumper, ptr noundef %28)
  br label %29

29:                                               ; preds = %26, %23
  %.1 = phi i1 [ true, %26 ], [ %.not37, %23 ]
  %30 = getelementptr inbounds nuw i8, ptr %.032, i64 24
  %31 = load ptr, ptr %30, align 8
  %.not39 = icmp eq ptr %31, null
  br i1 %.not39, label %35, label %32

32:                                               ; preds = %29
  %33 = call i32 (ptr, i64, i32, i64, ptr, ...) @__snprintf_chk(ptr noundef nonnull %3, i64 noundef 64, i32 noundef 2, i64 noundef 64, ptr noundef nonnull @.str.292, ptr noundef %1)
  %34 = load ptr, ptr %30, align 8
  call void @json_dumper_set_member_name(ptr noundef nonnull @dumper, ptr noundef nonnull %3)
  call void @json_dumper_value_string(ptr noundef nonnull @dumper, ptr noundef %34)
  br label %35

35:                                               ; preds = %32, %29
  %.2 = phi i1 [ true, %32 ], [ %.1, %29 ]
  %36 = getelementptr inbounds nuw i8, ptr %.032, i64 40
  %37 = load ptr, ptr %36, align 8
  %.not40 = icmp eq ptr %37, null
  br i1 %.not40, label %41, label %38

38:                                               ; preds = %35
  %39 = call i32 (ptr, i64, i32, i64, ptr, ...) @__snprintf_chk(ptr noundef nonnull %3, i64 noundef 64, i32 noundef 2, i64 noundef 64, ptr noundef nonnull @.str.293, ptr noundef %1)
  %40 = load ptr, ptr %36, align 8
  call void @json_dumper_set_member_name(ptr noundef nonnull @dumper, ptr noundef nonnull %3)
  call void @json_dumper_value_string(ptr noundef nonnull @dumper, ptr noundef %40)
  br label %41

41:                                               ; preds = %38, %35
  %.3 = phi i1 [ true, %38 ], [ %.2, %35 ]
  %42 = getelementptr inbounds nuw i8, ptr %.032, i64 32
  %43 = load i32, ptr %42, align 8
  %.not41 = icmp eq i32 %43, 0
  br i1 %.not41, label %47, label %44

44:                                               ; preds = %41
  %45 = call i32 (ptr, i64, i32, i64, ptr, ...) @__snprintf_chk(ptr noundef nonnull %3, i64 noundef 64, i32 noundef 2, i64 noundef 64, ptr noundef nonnull @.str.294, ptr noundef %1)
  %46 = load i32, ptr %42, align 8
  call void (ptr, ptr, ...) @sharkd_json_value_anyf(ptr noundef nonnull %3, ptr noundef nonnull @.str.123, i32 noundef %46)
  br label %47

47:                                               ; preds = %44, %41
  %.4 = phi i1 [ true, %44 ], [ %.3, %41 ]
  %48 = getelementptr inbounds nuw i8, ptr %.032, i64 48
  %49 = load double, ptr %48, align 8
  %50 = call double @llvm.fabs.f64(double %49)
  %or.cond = fcmp ugt double %50, 9.000000e+01
  br i1 %or.cond, label %54, label %51

51:                                               ; preds = %47
  %52 = call i32 (ptr, i64, i32, i64, ptr, ...) @__snprintf_chk(ptr noundef nonnull %3, i64 noundef 64, i32 noundef 2, i64 noundef 64, ptr noundef nonnull @.str.295, ptr noundef %1)
  %53 = load double, ptr %48, align 8
  call void (ptr, ptr, ...) @sharkd_json_value_anyf(ptr noundef nonnull %3, ptr noundef nonnull @.str.250, double noundef %53)
  br label %54

54:                                               ; preds = %51, %47
  %.5 = phi i1 [ true, %51 ], [ %.4, %47 ]
  %55 = getelementptr inbounds nuw i8, ptr %.032, i64 56
  %56 = load double, ptr %55, align 8
  %57 = call double @llvm.fabs.f64(double %56)
  %or.cond42 = fcmp ugt double %57, 1.800000e+02
  br i1 %or.cond42, label %.thread, label %58

58:                                               ; preds = %54
  %59 = call i32 (ptr, i64, i32, i64, ptr, ...) @__snprintf_chk(ptr noundef nonnull %3, i64 noundef 64, i32 noundef 2, i64 noundef 64, ptr noundef nonnull @.str.296, ptr noundef %1)
  %60 = load double, ptr %55, align 8
  call void (ptr, ptr, ...) @sharkd_json_value_anyf(ptr noundef nonnull %3, ptr noundef nonnull @.str.250, double noundef %60)
  br label %.thread

.thread:                                          ; preds = %54, %58, %2, %13, %14
  %.0 = phi i1 [ false, %14 ], [ false, %13 ], [ false, %2 ], [ true, %58 ], [ %.5, %54 ]
  call void @llvm.lifetime.end.p0(i64 64, ptr nonnull %3) #17
  ret i1 %.0
}